target datalayout = "e-m:e-p270:32:32-p271:32:32-p272:64:64-i64:64-i128:128-f80:128-n8:16:32:64-S128"
target triple = "x86_64-pc-linux-gnu"

@_ZN13sentencepiece12_GLOBAL__N_16g_seedE = internal global { i32 } { i32 -1 }, align 4

; Function Attrs: noreturn nounwind uwtable
define linkonce_odr hidden void @__clang_call_terminate(ptr noundef %0) #8 comdat {
  %2 = call ptr @__cxa_begin_catch(ptr %0) #3
  call void @_ZSt9terminatev() #13
  unreachable
}

; Function Attrs: mustprogress nounwind uwtable
define linkonce_odr noundef i32 @_ZStanSt12memory_orderSt23__memory_order_modifier(i32 noundef %0, i32 noundef %1) #4 comdat {
  %3 = alloca i32, align 4
  %4 = alloca i32, align 4
  store i32 %0, ptr %3, align 4
  store i32 %1, ptr %4, align 4
  %5 = load i32, ptr %3, align 4
  %6 = load i32, ptr %4, align 4
  %7 = and i32 %5, %6
  ret i32 %7
}

; Function Attrs: mustprogress nounwind uwtable
define void @_ZN13sentencepiece22SetRandomGeneratorSeedEj(i32 noundef %0) #4 personality ptr @__gxx_personality_v0 {
  %2 = alloca ptr, align 8
  %3 = alloca i32, align 4
  %4 = alloca i32, align 4
  %5 = alloca i32, align 4
  %6 = alloca i32, align 4
  %7 = alloca i32, align 4
  store i32 %0, ptr %7, align 4
  %8 = load i32, ptr %7, align 4
  %9 = icmp ne i32 %8, -1
  br i1 %9, label %10, label %28

10:                                               ; preds = %1
  %11 = load i32, ptr %7, align 4
  store ptr @_ZN13sentencepiece12_GLOBAL__N_16g_seedE, ptr %2, align 8
  store i32 %11, ptr %3, align 4
  store i32 5, ptr %4, align 4
  %12 = load ptr, ptr %2, align 8
  %13 = load i32, ptr %4, align 4
  %14 = invoke noundef i32 @_ZStanSt12memory_orderSt23__memory_order_modifier(i32 noundef %13, i32 noundef 65535)
          to label %15 unwind label %24

15:                                               ; preds = %10
  store i32 %14, ptr %5, align 4
  %16 = load i32, ptr %4, align 4
  %17 = load i32, ptr %3, align 4
  store i32 %17, ptr %6, align 4
  switch i32 %16, label %18 [
    i32 3, label %20
    i32 5, label %22
  ]

18:                                               ; preds = %15
  %19 = load i32, ptr %6, align 4
  store atomic i32 %19, ptr %12 monotonic, align 4
  br label %27

20:                                               ; preds = %15
  %21 = load i32, ptr %6, align 4
  store atomic i32 %21, ptr %12 release, align 4
  br label %27

22:                                               ; preds = %15
  %23 = load i32, ptr %6, align 4
  store atomic i32 %23, ptr %12 seq_cst, align 4
  br label %27

24:                                               ; preds = %10
  %25 = landingpad { ptr, i32 }
          catch ptr null
  %26 = extractvalue { ptr, i32 } %25, 0
  call void @__clang_call_terminate(ptr %26) #13
  unreachable

27:                                               ; preds = %22, %20, %18
  br label %28

28:                                               ; preds = %27, %1
  ret void
}