; Function Attrs: mustprogress nofree norecurse nounwind willreturn memory(readwrite, argmem: none, inaccessiblemem: none) uwtable
define void @_ZN13sentencepiece22SetRandomGeneratorSeedEj(i32 noundef %0) local_unnamed_addr #3 personality ptr @__gxx_personality_v0 {
  %.not = icmp eq i32 %0, -1
  br i1 %.not, label %3, label %2

2:                                                ; preds = %1
  store atomic i32 %0, ptr @_ZN13sentencepiece12_GLOBAL__N_16g_seedE.0 seq_cst, align 4
  br label %3

3:                                                ; preds = %2, %1
  ret void
}